target datalayout = "e-m:e-p270:32:32-p271:32:32-p272:64:64-i64:64-i128:128-f80:128-n8:16:32:64-S128"
target triple = "x86_64-pc-linux-gnu"

; Function Attrs: nounwind uwtable
define ptr @CMS_digest_create_ex(ptr noundef %0, ptr noundef %1, i32 noundef %2, ptr noundef %3, ptr noundef %4) #0 {
  %6 = alloca ptr, align 8
  %7 = alloca ptr, align 8
  %8 = alloca ptr, align 8
  %9 = alloca i32, align 4
  %10 = alloca ptr, align 8
  %11 = alloca ptr, align 8
  %12 = alloca ptr, align 8
  %13 = alloca i32, align 4
  store ptr %0, ptr %7, align 8, !tbaa !8
  store ptr %1, ptr %8, align 8, !tbaa !22
  store i32 %2, ptr %9, align 4, !tbaa !10
  store ptr %3, ptr %10, align 8, !tbaa !12
  store ptr %4, ptr %11, align 8, !tbaa !14
  call void @llvm.lifetime.start.p0(i64 8, ptr %12) #4
  %14 = load ptr, ptr %8, align 8, !tbaa !22
  %15 = icmp eq ptr %14, null
  br i1 %15, label %16, label %18

16:                                               ; preds = %5
  %17 = call ptr @EVP_sha1()
  store ptr %17, ptr %8, align 8, !tbaa !22
  br label %18

18:                                               ; preds = %16, %5
  %19 = load ptr, ptr %8, align 8, !tbaa !22
  %20 = load ptr, ptr %10, align 8, !tbaa !12
  %21 = load ptr, ptr %11, align 8, !tbaa !14
  %22 = call ptr @ossl_cms_DigestedData_create(ptr noundef %19, ptr noundef %20, ptr noundef %21)
  store ptr %22, ptr %12, align 8, !tbaa !3
  %23 = load ptr, ptr %12, align 8, !tbaa !3
  %24 = icmp eq ptr %23, null
  br i1 %24, label %25, label %26

25:                                               ; preds = %18
  store ptr null, ptr %6, align 8
  store i32 1, ptr %13, align 4
  br label %47

26:                                               ; preds = %18
  %27 = load i32, ptr %9, align 4, !tbaa !10
  %28 = and i32 %27, 64
  %29 = icmp ne i32 %28, 0
  br i1 %29, label %33, label %30

30:                                               ; preds = %26
  %31 = load ptr, ptr %12, align 8, !tbaa !3
  %32 = call i32 @CMS_set_detached(ptr noundef %31, i32 noundef 0)
  br label %33

33:                                               ; preds = %30, %26
  %34 = load i32, ptr %9, align 4, !tbaa !10
  %35 = and i32 %34, 4096
  %36 = icmp ne i32 %35, 0
  br i1 %36, label %43, label %37

37:                                               ; preds = %33
  %38 = load ptr, ptr %12, align 8, !tbaa !3
  %39 = load ptr, ptr %7, align 8, !tbaa !8
  %40 = load i32, ptr %9, align 4, !tbaa !10
  %41 = call i32 @CMS_final(ptr noundef %38, ptr noundef %39, ptr noundef null, i32 noundef %40)
  %42 = icmp ne i32 %41, 0
  br i1 %42, label %43, label %45

43:                                               ; preds = %37, %33
  %44 = load ptr, ptr %12, align 8, !tbaa !3
  store ptr %44, ptr %6, align 8
  store i32 1, ptr %13, align 4
  br label %47

45:                                               ; preds = %37
  %46 = load ptr, ptr %12, align 8, !tbaa !3
  call void @CMS_ContentInfo_free(ptr noundef %46)
  store ptr null, ptr %6, align 8
  store i32 1, ptr %13, align 4
  br label %47

47:                                               ; preds = %45, %43, %25
  call void @llvm.lifetime.end.p0(i64 8, ptr %12) #4
  %48 = load ptr, ptr %6, align 8
  ret ptr %48
}