; Function Attrs: nounwind uwtable
define ptr @CMS_digest_create_ex(ptr noundef %0, ptr noundef %1, i32 noundef %2, ptr noundef %3, ptr noundef %4) local_unnamed_addr #0 {
  %6 = icmp eq ptr %1, null
  br i1 %6, label %7, label %9

7:                                                ; preds = %5
  %8 = tail call ptr @EVP_sha1() #4
  br label %9

9:                                                ; preds = %7, %5
  %.013 = phi ptr [ %8, %7 ], [ %1, %5 ]
  %10 = tail call ptr @ossl_cms_DigestedData_create(ptr noundef %.013, ptr noundef %3, ptr noundef %4) #4
  %11 = icmp eq ptr %10, null
  br i1 %11, label %21, label %12

12:                                               ; preds = %9
  %13 = and i32 %2, 64
  %.not = icmp eq i32 %13, 0
  br i1 %.not, label %14, label %16

14:                                               ; preds = %12
  %15 = tail call i32 @CMS_set_detached(ptr noundef nonnull %10, i32 noundef 0) #4
  br label %16

16:                                               ; preds = %14, %12
  %17 = and i32 %2, 4096
  %.not16 = icmp eq i32 %17, 0
  br i1 %.not16, label %18, label %21

18:                                               ; preds = %16
  %19 = tail call i32 @CMS_final(ptr noundef nonnull %10, ptr noundef %0, ptr noundef null, i32 noundef %2)
  %.not17 = icmp eq i32 %19, 0
  br i1 %.not17, label %20, label %21

20:                                               ; preds = %18
  tail call void @CMS_ContentInfo_free(ptr noundef nonnull %10) #4
  br label %21

21:                                               ; preds = %16, %18, %9, %20
  %.0 = phi ptr [ null, %20 ], [ null, %9 ], [ %10, %18 ], [ %10, %16 ]
  ret ptr %.0
}